target datalayout = "e-m:e-p270:32:32-p271:32:32-p272:64:64-i64:64-i128:128-f80:128-n8:16:32:64-S128"
target triple = "x86_64-pc-linux-gnu"

@.str = private unnamed_addr constant [34 x i8] c"../openssl/crypto/asn1/asn_mime.c\00", align 1
@__func__.B64_write_ASN1 = private unnamed_addr constant [15 x i8] c"B64_write_ASN1\00", align 1

; Function Attrs: nounwind uwtable
define internal i32 @B64_write_ASN1(ptr noundef %0, ptr noundef %1, ptr noundef %2, i32 noundef %3, ptr noundef %4) #0 {
  %6 = alloca i32, align 4
  %7 = alloca ptr, align 8
  %8 = alloca ptr, align 8
  %9 = alloca ptr, align 8
  %10 = alloca i32, align 4
  %11 = alloca ptr, align 8
  %12 = alloca ptr, align 8
  %13 = alloca i32, align 4
  %14 = alloca i32, align 4
  store ptr %0, ptr %7, align 8, !tbaa !3
  store ptr %1, ptr %8, align 8, !tbaa !8
  store ptr %2, ptr %9, align 8, !tbaa !3
  store i32 %3, ptr %10, align 4, !tbaa !10
  store ptr %4, ptr %11, align 8, !tbaa !12
  call void @llvm.lifetime.start.p0(i64 8, ptr %12) #5
  call void @llvm.lifetime.start.p0(i64 4, ptr %13) #5
  %15 = call ptr @BIO_f_base64()
  %16 = call ptr @BIO_new(ptr noundef %15)
  store ptr %16, ptr %12, align 8, !tbaa !3
  %17 = load ptr, ptr %12, align 8, !tbaa !3
  %18 = icmp eq ptr %17, null
  br i1 %18, label %19, label %20

19:                                               ; preds = %5
  call void @ERR_new()
  call void @ERR_set_debug(ptr noundef @.str, i32 noundef 112, ptr noundef @__func__.B64_write_ASN1)
  call void (i32, i32, ptr, ...) @ERR_set_error(i32 noundef 13, i32 noundef 524320, ptr noundef null)
  store i32 0, ptr %6, align 4
  store i32 1, ptr %14, align 4
  br label %37

20:                                               ; preds = %5
  %21 = load ptr, ptr %12, align 8, !tbaa !3
  %22 = load ptr, ptr %7, align 8, !tbaa !3
  %23 = call ptr @BIO_push(ptr noundef %21, ptr noundef %22)
  store ptr %23, ptr %7, align 8, !tbaa !3
  %24 = load ptr, ptr %7, align 8, !tbaa !3
  %25 = load ptr, ptr %8, align 8, !tbaa !8
  %26 = load ptr, ptr %9, align 8, !tbaa !3
  %27 = load i32, ptr %10, align 4, !tbaa !10
  %28 = load ptr, ptr %11, align 8, !tbaa !12
  %29 = call i32 @i2d_ASN1_bio_stream(ptr noundef %24, ptr noundef %25, ptr noundef %26, i32 noundef %27, ptr noundef %28)
  store i32 %29, ptr %13, align 4, !tbaa !10
  %30 = load ptr, ptr %7, align 8, !tbaa !3
  %31 = call i64 @BIO_ctrl(ptr noundef %30, i32 noundef 11, i64 noundef 0, ptr noundef null)
  %32 = load ptr, ptr %7, align 8, !tbaa !3
  %33 = call ptr @BIO_pop(ptr noundef %32)
  %34 = load ptr, ptr %12, align 8, !tbaa !3
  %35 = call i32 @BIO_free(ptr noundef %34)
  %36 = load i32, ptr %13, align 4, !tbaa !10
  store i32 %36, ptr %6, align 4
  store i32 1, ptr %14, align 4
  br label %37

37:                                               ; preds = %20, %19
  call void @llvm.lifetime.end.p0(i64 4, ptr %13) #5
  call void @llvm.lifetime.end.p0(i64 8, ptr %12) #5
  %38 = load i32, ptr %6, align 4
  ret i32 %38
}