; Function Attrs: nounwind uwtable
define internal fastcc range(i32 0, 2) i32 @B64_write_ASN1(ptr noundef %0, ptr noundef %1, ptr noundef %2, i32 noundef %3, ptr noundef %4) unnamed_addr #0 {
  %6 = tail call ptr @BIO_f_base64() #6
  %7 = tail call ptr @BIO_new(ptr noundef %6) #6
  %8 = icmp eq ptr %7, null
  br i1 %8, label %9, label %10

9:                                                ; preds = %5
  tail call void @ERR_new() #6
  tail call void @ERR_set_debug(ptr noundef nonnull @.str, i32 noundef 112, ptr noundef nonnull @__func__.B64_write_ASN1) #6
  tail call void (i32, i32, ptr, ...) @ERR_set_error(i32 noundef 13, i32 noundef 524320, ptr noundef null) #6
  br label %16

10:                                               ; preds = %5
  %11 = tail call ptr @BIO_push(ptr noundef nonnull %7, ptr noundef %0) #6
  %12 = tail call i32 @i2d_ASN1_bio_stream(ptr noundef %11, ptr noundef %1, ptr noundef %2, i32 noundef %3, ptr noundef %4)
  %13 = tail call i64 @BIO_ctrl(ptr noundef %11, i32 noundef 11, i64 noundef 0, ptr noundef null) #6
  %14 = tail call ptr @BIO_pop(ptr noundef %11) #6
  %15 = tail call i32 @BIO_free(ptr noundef nonnull %7) #6
  br label %16

16:                                               ; preds = %10, %9
  %.0 = phi i32 [ 0, %9 ], [ %12, %10 ]
  ret i32 %.0
}